target datalayout = "e-m:e-p270:32:32-p271:32:32-p272:64:64-i64:64-i128:128-f80:128-n8:16:32:64-S128"
target triple = "x86_64-unknown-linux-gnu"

; Function Attrs: mustprogress nounwind uwtable
define noundef i32 @_ZN6icu_7511NGramParser6searchEPKii(ptr noundef nonnull align 8 dereferenceable(48) %this, ptr noundef %table, i32 noundef %value) #0 align 2 {
entry:
  %retval = alloca i32, align 4
  %this.addr = alloca ptr, align 8
  %table.addr = alloca ptr, align 8
  %value.addr = alloca i32, align 4
  %index = alloca i32, align 4
  store ptr %this, ptr %this.addr, align 8
  store ptr %table, ptr %table.addr, align 8
  store i32 %value, ptr %value.addr, align 4
  store i32 0, ptr %index, align 4
  %0 = load ptr, ptr %table.addr, align 8
  %1 = load i32, ptr %index, align 4
  %add = add nsw i32 %1, 32
  %idxprom = sext i32 %add to i64
  %arrayidx = getelementptr inbounds i32, ptr %0, i64 %idxprom
  %2 = load i32, ptr %arrayidx, align 4
  %3 = load i32, ptr %value.addr, align 4
  %cmp = icmp sle i32 %2, %3
  br i1 %cmp, label %if.then, label %if.end

if.then:                                          ; preds = %entry
  %4 = load i32, ptr %index, align 4
  %add2 = add nsw i32 %4, 32
  store i32 %add2, ptr %index, align 4
  br label %if.end

if.end:                                           ; preds = %if.then, %entry
  %5 = load ptr, ptr %table.addr, align 8
  %6 = load i32, ptr %index, align 4
  %add3 = add nsw i32 %6, 16
  %idxprom4 = sext i32 %add3 to i64
  %arrayidx5 = getelementptr inbounds i32, ptr %5, i64 %idxprom4
  %7 = load i32, ptr %arrayidx5, align 4
  %8 = load i32, ptr %value.addr, align 4
  %cmp6 = icmp sle i32 %7, %8
  br i1 %cmp6, label %if.then7, label %if.end9

if.then7:                                         ; preds = %if.end
  %9 = load i32, ptr %index, align 4
  %add8 = add nsw i32 %9, 16
  store i32 %add8, ptr %index, align 4
  br label %if.end9

if.end9:                                          ; preds = %if.then7, %if.end
  %10 = load ptr, ptr %table.addr, align 8
  %11 = load i32, ptr %index, align 4
  %add10 = add nsw i32 %11, 8
  %idxprom11 = sext i32 %add10 to i64
  %arrayidx12 = getelementptr inbounds i32, ptr %10, i64 %idxprom11
  %12 = load i32, ptr %arrayidx12, align 4
  %13 = load i32, ptr %value.addr, align 4
  %cmp13 = icmp sle i32 %12, %13
  br i1 %cmp13, label %if.then14, label %if.end16

if.then14:                                        ; preds = %if.end9
  %14 = load i32, ptr %index, align 4
  %add15 = add nsw i32 %14, 8
  store i32 %add15, ptr %index, align 4
  br label %if.end16

if.end16:                                         ; preds = %if.then14, %if.end9
  %15 = load ptr, ptr %table.addr, align 8
  %16 = load i32, ptr %index, align 4
  %add17 = add nsw i32 %16, 4
  %idxprom18 = sext i32 %add17 to i64
  %arrayidx19 = getelementptr inbounds i32, ptr %15, i64 %idxprom18
  %17 = load i32, ptr %arrayidx19, align 4
  %18 = load i32, ptr %value.addr, align 4
  %cmp20 = icmp sle i32 %17, %18
  br i1 %cmp20, label %if.then21, label %if.end23

if.then21:                                        ; preds = %if.end16
  %19 = load i32, ptr %index, align 4
  %add22 = add nsw i32 %19, 4
  store i32 %add22, ptr %index, align 4
  br label %if.end23

if.end23:                                         ; preds = %if.then21, %if.end16
  %20 = load ptr, ptr %table.addr, align 8
  %21 = load i32, ptr %index, align 4
  %add24 = add nsw i32 %21, 2
  %idxprom25 = sext i32 %add24 to i64
  %arrayidx26 = getelementptr inbounds i32, ptr %20, i64 %idxprom25
  %22 = load i32, ptr %arrayidx26, align 4
  %23 = load i32, ptr %value.addr, align 4
  %cmp27 = icmp sle i32 %22, %23
  br i1 %cmp27, label %if.then28, label %if.end30

if.then28:                                        ; preds = %if.end23
  %24 = load i32, ptr %index, align 4
  %add29 = add nsw i32 %24, 2
  store i32 %add29, ptr %index, align 4
  br label %if.end30

if.end30:                                         ; preds = %if.then28, %if.end23
  %25 = load ptr, ptr %table.addr, align 8
  %26 = load i32, ptr %index, align 4
  %add31 = add nsw i32 %26, 1
  %idxprom32 = sext i32 %add31 to i64
  %arrayidx33 = getelementptr inbounds i32, ptr %25, i64 %idxprom32
  %27 = load i32, ptr %arrayidx33, align 4
  %28 = load i32, ptr %value.addr, align 4
  %cmp34 = icmp sle i32 %27, %28
  br i1 %cmp34, label %if.then35, label %if.end37

if.then35:                                        ; preds = %if.end30
  %29 = load i32, ptr %index, align 4
  %add36 = add nsw i32 %29, 1
  store i32 %add36, ptr %index, align 4
  br label %if.end37

if.end37:                                         ; preds = %if.then35, %if.end30
  %30 = load ptr, ptr %table.addr, align 8
  %31 = load i32, ptr %index, align 4
  %idxprom38 = sext i32 %31 to i64
  %arrayidx39 = getelementptr inbounds i32, ptr %30, i64 %idxprom38
  %32 = load i32, ptr %arrayidx39, align 4
  %33 = load i32, ptr %value.addr, align 4
  %cmp40 = icmp sgt i32 %32, %33
  br i1 %cmp40, label %if.then41, label %if.end42

if.then41:                                        ; preds = %if.end37
  %34 = load i32, ptr %index, align 4
  %sub = sub nsw i32 %34, 1
  store i32 %sub, ptr %index, align 4
  br label %if.end42

if.end42:                                         ; preds = %if.then41, %if.end37
  %35 = load i32, ptr %index, align 4
  %cmp43 = icmp slt i32 %35, 0
  br i1 %cmp43, label %if.then47, label %lor.lhs.false

lor.lhs.false:                                    ; preds = %if.end42
  %36 = load ptr, ptr %table.addr, align 8
  %37 = load i32, ptr %index, align 4
  %idxprom44 = sext i32 %37 to i64
  %arrayidx45 = getelementptr inbounds i32, ptr %36, i64 %idxprom44
  %38 = load i32, ptr %arrayidx45, align 4
  %39 = load i32, ptr %value.addr, align 4
  %cmp46 = icmp ne i32 %38, %39
  br i1 %cmp46, label %if.then47, label %if.end48

if.then47:                                        ; preds = %lor.lhs.false, %if.end42
  store i32 -1, ptr %retval, align 4
  br label %return

if.end48:                                         ; preds = %lor.lhs.false
  %40 = load i32, ptr %index, align 4
  store i32 %40, ptr %retval, align 4
  br label %return

return:                                           ; preds = %if.end48, %if.then47
  %41 = load i32, ptr %retval, align 4
  ret i32 %41
}