; Function Attrs: mustprogress nofree norecurse nosync nounwind willreturn memory(argmem: read) uwtable
define noundef i32 @_ZN6icu_7511NGramParser6searchEPKii(ptr nocapture noundef nonnull readnone align 8 dereferenceable(48) %this, ptr nocapture noundef readonly %table, i32 noundef %value) local_unnamed_addr #4 align 2 {
entry:
  %arrayidx = getelementptr inbounds i8, ptr %table, i64 128
  %0 = load i32, ptr %arrayidx, align 4
  %cmp.not = icmp sgt i32 %0, %value
  %spec.select = select i1 %cmp.not, i32 0, i32 32
  %add3 = or disjoint i32 %spec.select, 16
  %idxprom4 = zext nneg i32 %add3 to i64
  %arrayidx5 = getelementptr inbounds i32, ptr %table, i64 %idxprom4
  %1 = load i32, ptr %arrayidx5, align 4
  %cmp6.not = icmp sgt i32 %1, %value
  %index.1 = select i1 %cmp6.not, i32 %spec.select, i32 %add3
  %add10 = or disjoint i32 %index.1, 8
  %idxprom11 = zext nneg i32 %add10 to i64
  %arrayidx12 = getelementptr inbounds i32, ptr %table, i64 %idxprom11
  %2 = load i32, ptr %arrayidx12, align 4
  %cmp13.not = icmp sgt i32 %2, %value
  %index.2 = select i1 %cmp13.not, i32 %index.1, i32 %add10
  %add17 = or disjoint i32 %index.2, 4
  %idxprom18 = zext nneg i32 %add17 to i64
  %arrayidx19 = getelementptr inbounds i32, ptr %table, i64 %idxprom18
  %3 = load i32, ptr %arrayidx19, align 4
  %cmp20.not = icmp sgt i32 %3, %value
  %index.3 = select i1 %cmp20.not, i32 %index.2, i32 %add17
  %add24 = add nuw nsw i32 %index.3, 2
  %idxprom25 = zext nneg i32 %add24 to i64
  %arrayidx26 = getelementptr inbounds i32, ptr %table, i64 %idxprom25
  %4 = load i32, ptr %arrayidx26, align 4
  %cmp27.not = icmp sgt i32 %4, %value
  %index.4 = select i1 %cmp27.not, i32 %index.3, i32 %add24
  %add31 = add nuw nsw i32 %index.4, 1
  %idxprom32 = zext nneg i32 %add31 to i64
  %arrayidx33 = getelementptr inbounds i32, ptr %table, i64 %idxprom32
  %5 = load i32, ptr %arrayidx33, align 4
  %cmp34.not = icmp sgt i32 %5, %value
  %index.5 = select i1 %cmp34.not, i32 %index.4, i32 %add31
  %idxprom38 = zext nneg i32 %index.5 to i64
  %arrayidx39 = getelementptr inbounds i32, ptr %table, i64 %idxprom38
  %6 = load i32, ptr %arrayidx39, align 4
  %cmp40 = icmp sgt i32 %6, %value
  %sub = sext i1 %cmp40 to i32
  %index.6 = add nsw i32 %index.5, %sub
  %cmp43 = icmp slt i32 %index.6, 0
  br i1 %cmp43, label %return, label %lor.lhs.false

lor.lhs.false:                                    ; preds = %entry
  %idxprom44 = zext nneg i32 %index.6 to i64
  %arrayidx45 = getelementptr inbounds i32, ptr %table, i64 %idxprom44
  %7 = load i32, ptr %arrayidx45, align 4
  %cmp46.not = icmp eq i32 %7, %value
  %spec.select31 = select i1 %cmp46.not, i32 %index.6, i32 -1
  br label %return

return:                                           ; preds = %lor.lhs.false, %entry
  %retval.0 = phi i32 [ -1, %entry ], [ %spec.select31, %lor.lhs.false ]
  ret i32 %retval.0
}